target datalayout = "e-m:e-p270:32:32-p271:32:32-p272:64:64-i64:64-i128:128-f80:128-n8:16:32:64-S128"
target triple = "x86_64-pc-linux-gnu"

%union.pthread_mutex_t = type { %struct.__pthread_mutex_s }
%struct.__pthread_mutex_s = type { i32, i32, i32, i32, i32, i16, i16, %struct.__pthread_internal_list }
%struct.__pthread_internal_list = type { ptr, ptr }
%struct.slurmdb_federation_rec_t = type { ptr, i32, ptr }
%struct.slurmdb_cluster_rec = type { ptr, i16, i64, %struct.sockaddr_storage, ptr, i32, i16, ptr, i16, %struct.slurmdb_cluster_fed_t, i32, %union.pthread_mutex_t, ptr, ptr, ptr, i16, ptr, ptr }
%struct.sockaddr_storage = type { i16, [118 x i8], i64 }
%struct.slurmdb_cluster_fed_t = type { ptr, i32, ptr, ptr, ptr, i32, i8, i8 }
%struct.slurm_msg = type { %struct.sockaddr_storage, ptr, i32, i32, i32, i8, i32, i8, i32, ptr, ptr, i32, ptr, ptr, i16, i8, i16, i16, %struct.forward, ptr, %struct.sockaddr_storage, ptr }
%struct.forward = type { %struct.slurm_node_alias_addrs_t, i16, i16, ptr, i32, i16, i16 }
%struct.slurm_node_alias_addrs_t = type { i64, ptr, ptr, i32, ptr }
%struct.persist_conn_t = type { ptr, i32, i32, i8, ptr, ptr, ptr, i64, i16, i32, i16, i8, i32, i32, ptr, i16, ptr, i64, i32, ptr, %struct.slurm_trigger_callbacks_t, i16 }
%struct.slurm_trigger_callbacks_t = type { ptr, ptr, ptr, ptr, ptr }
%struct.sib_msg_t = type { i32, ptr, ptr, i32, i16, i16, i64, i32, i32, i32, i32, i64, ptr, i32, i16, ptr, i16, i32 }

@fed_mgr_fed_rec = dso_local global ptr null, align 8
@fed_mgr_cluster_rec = dso_local global ptr null, align 8
@.str.186 = private unnamed_addr constant [35 x i8] c"couldn't find cluster rec by id %d\00", align 1

; Function Attrs: nounwind uwtable
define internal i32 @_persist_fed_job_revoke(ptr noundef %0, i32 noundef %1, i32 noundef %2, i32 noundef %3, i64 noundef %4) #0 {
  %6 = alloca i32, align 4
  %7 = alloca ptr, align 8
  %8 = alloca i32, align 4
  %9 = alloca i32, align 4
  %10 = alloca i32, align 4
  %11 = alloca i64, align 8
  %12 = alloca i32, align 4
  %13 = alloca %struct.slurm_msg, align 8
  %14 = alloca %struct.sib_msg_t, align 8
  %15 = alloca i32, align 4
  store ptr %0, ptr %7, align 8
  store i32 %1, ptr %8, align 4
  store i32 %2, ptr %9, align 4
  store i32 %3, ptr %10, align 4
  store i64 %4, ptr %11, align 8
  call void @llvm.lifetime.start.p0(i64 4, ptr %12) #9
  call void @llvm.lifetime.start.p0(i64 424, ptr %13) #9
  call void @llvm.lifetime.start.p0(i64 96, ptr %14) #9
  %16 = load ptr, ptr %7, align 8
  %17 = getelementptr inbounds nuw %struct.slurmdb_cluster_rec, ptr %16, i32 0, i32 9
  %18 = getelementptr inbounds nuw %struct.slurmdb_cluster_fed_t, ptr %17, i32 0, i32 4
  %19 = load ptr, ptr %18, align 8
  %20 = icmp ne ptr %19, null
  br i1 %20, label %21, label %29

21:                                               ; preds = %5
  %22 = load ptr, ptr %7, align 8
  %23 = getelementptr inbounds nuw %struct.slurmdb_cluster_rec, ptr %22, i32 0, i32 9
  %24 = getelementptr inbounds nuw %struct.slurmdb_cluster_fed_t, ptr %23, i32 0, i32 4
  %25 = load ptr, ptr %24, align 8
  %26 = getelementptr inbounds nuw %struct.persist_conn_t, ptr %25, i32 0, i32 9
  %27 = load i32, ptr %26, align 4
  %28 = icmp eq i32 %27, -1
  br i1 %28, label %29, label %30

29:                                               ; preds = %21, %5
  store i32 0, ptr %6, align 4
  store i32 1, ptr %15, align 4
  br label %50

30:                                               ; preds = %21
  call void @slurm_msg_t_init(ptr noundef %13)
  call void @llvm.memset.p0.i64(ptr align 8 %14, i8 0, i64 96, i1 false)
  %31 = getelementptr inbounds nuw %struct.sib_msg_t, ptr %14, i32 0, i32 14
  store i16 2, ptr %31, align 4
  %32 = load i32, ptr %8, align 4
  %33 = getelementptr inbounds nuw %struct.sib_msg_t, ptr %14, i32 0, i32 8
  store i32 %32, ptr %33, align 4
  %34 = load i32, ptr %9, align 4
  %35 = getelementptr inbounds nuw %struct.sib_msg_t, ptr %14, i32 0, i32 9
  store i32 %34, ptr %35, align 8
  %36 = load i64, ptr %11, align 8
  %37 = getelementptr inbounds nuw %struct.sib_msg_t, ptr %14, i32 0, i32 11
  store i64 %36, ptr %37, align 8
  %38 = load i32, ptr %10, align 4
  %39 = getelementptr inbounds nuw %struct.sib_msg_t, ptr %14, i32 0, i32 10
  store i32 %38, ptr %39, align 4
  call void @slurm_msg_t_init(ptr noundef %13)
  %40 = getelementptr inbounds nuw %struct.slurm_msg, ptr %13, i32 0, i32 16
  store i16 4502, ptr %40, align 4
  %41 = load ptr, ptr %7, align 8
  %42 = getelementptr inbounds nuw %struct.slurmdb_cluster_rec, ptr %41, i32 0, i32 15
  %43 = load i16, ptr %42, align 8
  %44 = getelementptr inbounds nuw %struct.slurm_msg, ptr %13, i32 0, i32 17
  store i16 %43, ptr %44, align 2
  %45 = getelementptr inbounds nuw %struct.slurm_msg, ptr %13, i32 0, i32 13
  store ptr %14, ptr %45, align 8
  %46 = load ptr, ptr %7, align 8
  %47 = load i32, ptr %8, align 4
  %48 = call i32 @_queue_rpc(ptr noundef %46, ptr noundef %13, i32 noundef %47, i1 noundef zeroext false)
  store i32 %48, ptr %12, align 4
  %49 = load i32, ptr %12, align 4
  store i32 %49, ptr %6, align 4
  store i32 1, ptr %15, align 4
  br label %50

50:                                               ; preds = %30, %29
  call void @llvm.lifetime.end.p0(i64 96, ptr %14) #9
  call void @llvm.lifetime.end.p0(i64 424, ptr %13) #9
  call void @llvm.lifetime.end.p0(i64 4, ptr %12) #9
  %51 = load i32, ptr %6, align 4
  ret i32 %51
}

; Function Attrs: nounwind uwtable
define dso_local ptr @fed_mgr_get_cluster_by_id(i32 noundef %0) #0 {
  %2 = alloca i32, align 4
  %3 = alloca i32, align 4
  store i32 %0, ptr %2, align 4
  call void @llvm.lifetime.start.p0(i64 4, ptr %3) #9
  %4 = load i32, ptr %2, align 4
  store i32 %4, ptr %3, align 4
  %5 = load ptr, ptr @fed_mgr_fed_rec, align 8
  %6 = getelementptr inbounds nuw %struct.slurmdb_federation_rec_t, ptr %5, i32 0, i32 2
  %7 = load ptr, ptr %6, align 8
  %8 = call ptr @list_find_first(ptr noundef %7, ptr noundef @_find_sibling_by_id, ptr noundef %3)
  call void @llvm.lifetime.end.p0(i64 4, ptr %3) #9
  ret ptr %8
}

; Function Attrs: nounwind uwtable
define internal void @_revoke_sibling_jobs(i32 noundef %0, i32 noundef %1, i64 noundef %2, i64 noundef %3) #0 {
  %5 = alloca i32, align 4
  %6 = alloca i32, align 4
  %7 = alloca i64, align 8
  %8 = alloca i64, align 8
  %9 = alloca i32, align 4
  %10 = alloca i32, align 4
  %11 = alloca ptr, align 8
  store i32 %0, ptr %5, align 4
  store i32 %1, ptr %6, align 4
  store i64 %2, ptr %7, align 8
  store i64 %3, ptr %8, align 8
  call void @llvm.lifetime.start.p0(i64 4, ptr %9) #9
  store i32 1, ptr %9, align 4
  %12 = load ptr, ptr @fed_mgr_fed_rec, align 8
  %13 = icmp ne ptr %12, null
  br i1 %13, label %15, label %14

14:                                               ; preds = %4
  store i32 1, ptr %10, align 4
  br label %57

15:                                               ; preds = %4
  br label %16

16:                                               ; preds = %51, %15
  %17 = load i64, ptr %7, align 8
  %18 = icmp ne i64 %17, 0
  br i1 %18, label %19, label %56

19:                                               ; preds = %16
  %20 = load i64, ptr %7, align 8
  %21 = and i64 %20, 1
  %22 = icmp ne i64 %21, 0
  br i1 %22, label %23, label %50

23:                                               ; preds = %19
  %24 = load i32, ptr %9, align 4
  %25 = load ptr, ptr @fed_mgr_cluster_rec, align 8
  %26 = getelementptr inbounds nuw %struct.slurmdb_cluster_rec, ptr %25, i32 0, i32 9
  %27 = getelementptr inbounds nuw %struct.slurmdb_cluster_fed_t, ptr %26, i32 0, i32 1
  %28 = load i32, ptr %27, align 8
  %29 = icmp ne i32 %24, %28
  br i1 %29, label %30, label %50

30:                                               ; preds = %23
  %31 = load i32, ptr %9, align 4
  %32 = load i32, ptr %6, align 4
  %33 = icmp ne i32 %31, %32
  br i1 %33, label %34, label %50

34:                                               ; preds = %30
  call void @llvm.lifetime.start.p0(i64 8, ptr %11) #9
  %35 = load i32, ptr %9, align 4
  %36 = call ptr @fed_mgr_get_cluster_by_id(i32 noundef %35)
  store ptr %36, ptr %11, align 8
  %37 = load ptr, ptr %11, align 8
  %38 = icmp ne ptr %37, null
  br i1 %38, label %42, label %39

39:                                               ; preds = %34
  %40 = load i32, ptr %9, align 4
  %41 = call i32 (ptr, ...) @error(ptr noundef @.str.186, i32 noundef %40)
  store i32 4, ptr %10, align 4
  br label %47

42:                                               ; preds = %34
  %43 = load ptr, ptr %11, align 8
  %44 = load i32, ptr %5, align 4
  %45 = load i64, ptr %8, align 8
  %46 = call i32 @_persist_fed_job_revoke(ptr noundef %43, i32 noundef %44, i32 noundef 4, i32 noundef 0, i64 noundef %45)
  store i32 0, ptr %10, align 4
  br label %47

47:                                               ; preds = %39, %42
  call void @llvm.lifetime.end.p0(i64 8, ptr %11) #9
  %48 = load i32, ptr %10, align 4
  switch i32 %48, label %57 [
    i32 0, label %49
    i32 4, label %51
  ]

49:                                               ; preds = %47
  br label %50

50:                                               ; preds = %49, %30, %23, %19
  br label %51

51:                                               ; preds = %50, %47
  %52 = load i64, ptr %7, align 8
  %53 = lshr i64 %52, 1
  store i64 %53, ptr %7, align 8
  %54 = load i32, ptr %9, align 4
  %55 = add nsw i32 %54, 1
  store i32 %55, ptr %9, align 4
  br label %16, !llvm.loop !31

56:                                               ; preds = %16
  store i32 0, ptr %10, align 4
  br label %57

57:                                               ; preds = %56, %47, %14
  call void @llvm.lifetime.end.p0(i64 4, ptr %9) #9
  %58 = load i32, ptr %10, align 4
  switch i32 %58, label %60 [
    i32 0, label %59
    i32 1, label %59
  ]

59:                                               ; preds = %57, %57
  ret void

60:                                               ; preds = %57
  unreachable
}