; Function Attrs: nounwind uwtable
define internal fastcc void @_revoke_sibling_jobs(i32 noundef %0, i32 noundef %1, i64 noundef %2, i64 noundef %3) unnamed_addr #0 {
  %5 = alloca %struct.slurm_msg, align 8
  %6 = alloca %struct.sib_msg_t, align 8
  %7 = alloca i32, align 4
  %8 = load ptr, ptr @fed_mgr_fed_rec, align 8
  %.not = icmp eq ptr %8, null
  %.not1621 = icmp eq i64 %2, 0
  %or.cond24 = or i1 %.not, %.not1621
  br i1 %or.cond24, label %.loopexit, label %.lr.ph

.lr.ph:                                           ; preds = %4
  %9 = getelementptr inbounds nuw i8, ptr %6, i64 76
  %10 = getelementptr inbounds nuw i8, ptr %6, i64 44
  %11 = getelementptr inbounds nuw i8, ptr %6, i64 48
  %12 = getelementptr inbounds nuw i8, ptr %6, i64 56
  %13 = getelementptr inbounds nuw i8, ptr %5, i64 212
  %14 = getelementptr inbounds nuw i8, ptr %5, i64 214
  %15 = getelementptr inbounds nuw i8, ptr %5, i64 200
  br label %16

16:                                               ; preds = %.lr.ph, %40
  %.023 = phi i64 [ %2, %.lr.ph ], [ %41, %40 ]
  %.01422 = phi i32 [ 1, %.lr.ph ], [ %42, %40 ]
  %17 = and i64 %.023, 1
  %.not17 = icmp eq i64 %17, 0
  br i1 %.not17, label %40, label %18

18:                                               ; preds = %16
  %19 = load ptr, ptr @fed_mgr_cluster_rec, align 8
  %20 = getelementptr inbounds nuw i8, ptr %19, i64 192
  %21 = load i32, ptr %20, align 8
  %.not18 = icmp eq i32 %.01422, %21
  %.not19 = icmp eq i32 %.01422, %1
  %or.cond = or i1 %.not19, %.not18
  br i1 %or.cond, label %40, label %22

22:                                               ; preds = %18
  call void @llvm.lifetime.start.p0(i64 4, ptr nonnull %7) #16
  store i32 %.01422, ptr %7, align 4
  %23 = load ptr, ptr @fed_mgr_fed_rec, align 8
  %24 = getelementptr inbounds nuw i8, ptr %23, i64 16
  %25 = load ptr, ptr %24, align 8
  %26 = call ptr @list_find_first(ptr noundef %25, ptr noundef nonnull @_find_sibling_by_id, ptr noundef nonnull %7) #16
  call void @llvm.lifetime.end.p0(i64 4, ptr nonnull %7) #16
  %.not20 = icmp eq ptr %26, null
  br i1 %.not20, label %27, label %29

27:                                               ; preds = %22
  %28 = call i32 (ptr, ...) @error(ptr noundef nonnull @.str.186, i32 noundef %.01422) #16
  br label %40

29:                                               ; preds = %22
  call void @llvm.lifetime.start.p0(i64 424, ptr nonnull %5) #16
  call void @llvm.lifetime.start.p0(i64 96, ptr nonnull %6) #16
  %30 = getelementptr inbounds nuw i8, ptr %26, i64 216
  %31 = load ptr, ptr %30, align 8
  %.not.i = icmp eq ptr %31, null
  br i1 %.not.i, label %_persist_fed_job_revoke.exit, label %32

32:                                               ; preds = %29
  %33 = getelementptr inbounds nuw i8, ptr %31, i64 60
  %34 = load i32, ptr %33, align 4
  %35 = icmp eq i32 %34, -1
  br i1 %35, label %_persist_fed_job_revoke.exit, label %36

36:                                               ; preds = %32
  call void @slurm_msg_t_init(ptr noundef nonnull %5) #16
  call void @llvm.memset.p0.i64(ptr noundef nonnull align 8 dereferenceable(96) %6, i8 0, i64 96, i1 false)
  store i16 2, ptr %9, align 4
  store i32 %0, ptr %10, align 4
  store i32 4, ptr %11, align 8
  store i64 %3, ptr %12, align 8
  call void @slurm_msg_t_init(ptr noundef nonnull %5) #16
  store i16 4502, ptr %13, align 4
  %37 = getelementptr inbounds nuw i8, ptr %26, i64 304
  %38 = load i16, ptr %37, align 8
  store i16 %38, ptr %14, align 2
  store ptr %6, ptr %15, align 8
  %39 = call fastcc i32 @_queue_rpc(ptr noundef nonnull %26, ptr noundef %5, i32 noundef %0)
  br label %_persist_fed_job_revoke.exit

_persist_fed_job_revoke.exit:                     ; preds = %29, %32, %36
  call void @llvm.lifetime.end.p0(i64 96, ptr nonnull %6) #16
  call void @llvm.lifetime.end.p0(i64 424, ptr nonnull %5) #16
  br label %40

40:                                               ; preds = %27, %_persist_fed_job_revoke.exit, %16, %18
  %41 = lshr i64 %.023, 1
  %42 = add nuw nsw i32 %.01422, 1
  %.not16 = icmp ult i64 %.023, 2
  br i1 %.not16, label %.loopexit, label %16, !llvm.loop !37

.loopexit:                                        ; preds = %40, %4
  ret void
}